(dp1
S'servicio'
p2
(dp3
S'length'
p4
I512
sS'unique'
p5
I00
sS'sortable'
p6
I2
sS'sql'
p7
S'INTEGER REFERENCES servicio (id) ON DELETE CASCADE  '
p8
sS'notnull'
p9
I00
sS'type'
p10
S'reference servicio'
p11
ssS'lider'
p12
(dp13
g4
I512
sg5
I00
sg6
I3
sg7
S'INTEGER REFERENCES bombero (id) ON DELETE CASCADE  '
p14
sg9
I00
sg10
S'reference bombero'
p15
ssS'id'
p16
(dp17
g4
I512
sg5
I00
sg6
I1
sg7
S'SERIAL PRIMARY KEY'
p18
sg9
I00
sg10
g16
ss.