(dp1
S'username'
p2
(dp3
S'length'
p4
I24
sS'unique'
p5
I01
sS'sortable'
p6
I2
sS'sql'
p7
S'VARCHAR(24) NOT NULL UNIQUE'
p8
sS'notnull'
p9
I01
sS'type'
p10
S'string'
p11
ssS'password'
p12
(dp13
g4
I24
sg5
I00
sg6
I3
sg7
S'VARCHAR(24) NOT NULL'
p14
sg9
I01
sg10
g12
ssS'id'
p15
(dp16
g4
I512
sg5
I00
sg6
I1
sg7
S'SERIAL PRIMARY KEY'
p17
sg9
I00
sg10
g15
ss.