(dp1
S'output'
p2
S'<class \'psycopg2.ProgrammingError\'> relation "bombero" does not exist\n'
p3
sS'layer'
p4
S'/home/marcosajc/Documentos/Sistemas/web2py/applications/Apolo/models/models.py'
p5
sS'code'
p6
S'DB = DAL("postgres://cbvusb:1234@localhost/cbvusb")\n\nDB.define_table(\'usuario\', \n        Field(\'username\', type=\'string\', length=24, required=True, notnull=True, unique=True),\n        Field(\'password\', type=\'password\', length=24, required=True, notnull=True),\n        migrate=True)\n\nDB.define_table(\'persona\',\n        Field(\'cedula\', type=\'integer\', required=True, notnull=True, unique=True),\n        Field(\'primer_nombre\', type=\'string\', required=True, notnull=True),\n        Field(\'segundo_nombre\', type=\'string\'),\n        Field(\'primer_apellido\', type=\'string\', required=True, notnull=True),\n        Field(\'segundo_apellido\', type=\'string\', required=True, notnull=True),\n        Field(\'fecha_nacimiento\', type=\'date\', required=True, notnull=True),\n        Field(\'lugar_nacimiento\', type=\'string\', required=True, notnull=True),\n        Field(\'genero\', type=\'string\', required=True, notnull=True),\n        Field(\'imagen\', type=\'text\'),\n        Field(\'email_principal\', type=\'string\', required=True, notnull=True),\n        Field(\'email_alternativo\', type=\'string\'),\n        Field(\'estado_civil\', type=\'string\', required=True, notnull=True),\n        migrate=True)\n        \nDB.define_table(\'bombero\', \n        Field(\'carnet\', type=\'integer\', required=True, notnull=True, unique=True),\n        Field(\'imagen_perfil\', type=\'text\'),\n        Field(\'iniciales\', type=\'string\'),\n        Field(\'tipo_sangre\', type=\'string\'),\n        Field(\'id_persona\', type=\'reference persona\', required=True, notnull=True, unique=True), \n        Field(\'id_usuario\', type=\'reference usuario\', required=True, notnull=True, unique=True),\n        Field(\'hijos\', type=\'integer\', default=0),\n        migrate=True)\n\nDB.define_table(\'servicio\',\n    Field(\'CodServicio\',unique = True,notnull = True),\n    Field(\'Registra\',\'reference bombero\',notnull = True),\n    Field(\'Borrador\',\'boolean\',default = True,notnull = True),\n    Field(\'Aprueba\',\'reference bombero\'),\n    Field(\'fechaCreacion\',\'date\'),\n    Field(\'tipo\'),\n    migrate=True)'
p7
sS'snapshot'
p8
(dp9
S'exception'
p10
(dp11
S'__module__'
p12
S"'psycopg2'"
p13
sS'__getslice__'
p14
S"<method-wrapper '__getslice__' of ProgrammingError object>"
p15
sS'__str__'
p16
S"<method-wrapper '__str__' of ProgrammingError object>"
p17
sS'__reduce__'
p18
S'<built-in method __reduce__ of ProgrammingError object>'
p19
sS'__dict__'
p20
S'{}'
p21
sS'__sizeof__'
p22
S'<built-in method __sizeof__ of ProgrammingError object>'
p23
sS'__weakref__'
p24
S'None'
p25
sS'__init__'
p26
S"<method-wrapper '__init__' of ProgrammingError object>"
p27
sS'__setattr__'
p28
S"<method-wrapper '__setattr__' of ProgrammingError object>"
p29
sS'__reduce_ex__'
p30
S'<built-in method __reduce_ex__ of ProgrammingError object>'
p31
sS'__new__'
p32
S'<built-in method __new__ of type object>'
p33
sS'diag'
p34
S'<psycopg2.extensions.Diagnostics object>'
p35
sS'__format__'
p36
S'<built-in method __format__ of ProgrammingError object>'
p37
sS'__class__'
p38
S"<class 'psycopg2.ProgrammingError'>"
p39
sS'pgerror'
p40
S'\'ERROR:  relation "bombero" does not exist\\n\''
p41
sS'__doc__'
p42
S"'Error related to database programming (SQL error, table not found etc).'"
p43
sS'__getitem__'
p44
S"<method-wrapper '__getitem__' of ProgrammingError object>"
p45
sS'__setstate__'
p46
S'<built-in method __setstate__ of ProgrammingError object>'
p47
sS'__getattribute__'
p48
S"<method-wrapper '__getattribute__' of ProgrammingError object>"
p49
sS'args'
p50
S'(\'relation "bombero" does not exist\\n\',)'
p51
sS'__subclasshook__'
p52
S'<built-in method __subclasshook__ of type object>'
p53
sS'pgcode'
p54
S"'42P01'"
p55
sS'__unicode__'
p56
S'<built-in method __unicode__ of ProgrammingError object>'
p57
sS'cursor'
p58
S'<cursor object at 0xacafb22c; closed: 0>'
p59
sS'__delattr__'
p60
S"<method-wrapper '__delattr__' of ProgrammingError object>"
p61
sS'__repr__'
p62
S"<method-wrapper '__repr__' of ProgrammingError object>"
p63
sS'__hash__'
p64
S"<method-wrapper '__hash__' of ProgrammingError object>"
p65
ssS'evalue'
p66
S'relation "bombero" does not exist\n'
p67
sS'request'
p68
cgluon.html
XML_unpickle
p69
(S'sL\\\x00\x00<div><table><tr><td style="font-weight:bold;vertical-align:top;">ajax</td><td style="vertical-align:top;">:</td><td><div>False</div></td></tr><tr><td style="font-weight:bold;vertical-align:top;">application</td><td style="vertical-align:top;">:</td><td><div>Apolo</div></td></tr><tr><td style="font-weight:bold;vertical-align:top;">args</td><td style="vertical-align:top;">:</td><td><div><table></table></div></td></tr><tr><td style="font-weight:bold;vertical-align:top;">cid</td><td style="vertical-align:top;">:</td><td><div>None</div></td></tr><tr><td style="font-weight:bold;vertical-align:top;">client</td><td style="vertical-align:top;">:</td><td><div>127.0.0.1</div></td></tr><tr><td style="font-weight:bold;vertical-align:top;">controller</td><td style="vertical-align:top;">:</td><td><div>default</div></td></tr><tr><td style="font-weight:bold;vertical-align:top;">cookies</td><td style="vertical-align:top;">:</td><td><div><table><tr><td style="font-weight:bold;vertical-align:top;">session_id_admin</td><td style="vertical-align:top;">:</td><td><div>127.0.0.1-84a18e97-ae98-415a-a48d-54fc2e31db65<table><tr><td style="font-weight:bold;vertical-align:top;">comment</td><td style="vertical-align:top;">:</td><td><div></div></td></tr><tr><td style="font-weight:bold;vertical-align:top;">domain</td><td style="vertical-align:top;">:</td><td><div></div></td></tr><tr><td style="font-weight:bold;vertical-align:top;">expires</td><td style="vertical-align:top;">:</td><td><div></div></td></tr><tr><td style="font-weight:bold;vertical-align:top;">httponly</td><td style="vertical-align:top;">:</td><td><div></div></td></tr><tr><td style="font-weight:bold;vertical-align:top;">max-age</td><td style="vertical-align:top;">:</td><td><div></div></td></tr><tr><td style="font-weight:bold;vertical-align:top;">path</td><td style="vertical-align:top;">:</td><td><div></div></td></tr><tr><td style="font-weight:bold;vertical-align:top;">secure</td><td style="vertical-align:top;">:</td><td><div></div></td></tr><tr><td style="font-weight:bold;vertical-align:top;">version</td><td style="vertical-align:top;">:</td><td><div></div></td></tr></table></div></td></tr><tr><td style="font-weight:bold;vertical-align:top;">session_id_apolo</td><td style="vertical-align:top;">:</td><td><div>127.0.0.1-66c2d4a0-a74a-4243-a5e0-cbe8bdc4de12<table><tr><td style="font-weight:bold;vertical-align:top;">comment</td><td style="vertical-align:top;">:</td><td><div></div></td></tr><tr><td style="font-weight:bold;vertical-align:top;">domain</td><td style="vertical-align:top;">:</td><td><div></div></td></tr><tr><td style="font-weight:bold;vertical-align:top;">expires</td><td style="vertical-align:top;">:</td><td><div></div></td></tr><tr><td style="font-weight:bold;vertical-align:top;">httponly</td><td style="vertical-align:top;">:</td><td><div></div></td></tr><tr><td style="font-weight:bold;vertical-align:top;">max-age</td><td style="vertical-align:top;">:</td><td><div></div></td></tr><tr><td style="font-weight:bold;vertical-align:top;">path</td><td style="vertical-align:top;">:</td><td><div></div></td></tr><tr><td style="font-weight:bold;vertical-align:top;">secure</td><td style="vertical-align:top;">:</td><td><div></div></td></tr><tr><td style="font-weight:bold;vertical-align:top;">version</td><td style="vertical-align:top;">:</td><td><div></div></td></tr></table></div></td></tr><tr><td style="font-weight:bold;vertical-align:top;">session_id_welcome</td><td style="vertical-align:top;">:</td><td><div>127.0.0.1-47964f1f-5902-4684-978e-8ed9bbb40012<table><tr><td style="font-weight:bold;vertical-align:top;">comment</td><td style="vertical-align:top;">:</td><td><div></div></td></tr><tr><td style="font-weight:bold;vertical-align:top;">domain</td><td style="vertical-align:top;">:</td><td><div></div></td></tr><tr><td style="font-weight:bold;vertical-align:top;">expires</td><td style="vertical-align:top;">:</td><td><div></div></td></tr><tr><td style="font-weight:bold;vertical-align:top;">httponly</td><td style="vertical-align:top;">:</td><td><div></div></td></tr><tr><td style="font-weight:bold;vertical-align:top;">max-age</td><td style="vertical-align:top;">:</td><td><div></div></td></tr><tr><td style="font-weight:bold;vertical-align:top;">path</td><td style="vertical-align:top;">:</td><td><div></div></td></tr><tr><td style="font-weight:bold;vertical-align:top;">secure</td><td style="vertical-align:top;">:</td><td><div></div></td></tr><tr><td style="font-weight:bold;vertical-align:top;">version</td><td style="vertical-align:top;">:</td><td><div></div></td></tr></table></div></td></tr></table></div></td></tr><tr><td style="font-weight:bold;vertical-align:top;">env</td><td style="vertical-align:top;">:</td><td><div><table><tr><td style="font-weight:bold;vertical-align:top;">HTTP_ACCEPT</td><td style="vertical-align:top;">:</td><td><div>text/html,application/xhtml+xml,application/xml;q=0.9,image/webp,*/*;q=0.8</div></td></tr><tr><td style="font-weight:bold;vertical-align:top;">HTTP_ACCEPT_ENCODING</td><td style="vertical-align:top;">:</td><td><div>gzip, deflate, sdch, br</div></td></tr><tr><td style="font-weight:bold;vertical-align:top;">HTTP_ACCEPT_LANGUAGE</td><td style="vertical-align:top;">:</td><td><div>es-ES,es;q=0.8</div></td></tr><tr><td style="font-weight:bold;vertical-align:top;">HTTP_CACHE_CONTROL</td><td style="vertical-align:top;">:</td><td><div>max-age=0</div></td></tr><tr><td style="font-weight:bold;vertical-align:top;">HTTP_CONNECTION</td><td style="vertical-align:top;">:</td><td><div>keep-alive</div></td></tr><tr><td style="font-weight:bold;vertical-align:top;">HTTP_COOKIE</td><td style="vertical-align:top;">:</td><td><div>session_id_apolo=127.0.0.1-66c2d4a0-a74a-4243-a5e0-cbe8bdc4de12; session_id_welcome=127.0.0.1-47964f1f-5902-4684-978e-8ed9bbb40012; session_id_admin=127.0.0.1-84a18e97-ae98-415a-a48d-54fc2e31db65</div></td></tr><tr><td style="font-weight:bold;vertical-align:top;">HTTP_HOST</td><td style="vertical-align:top;">:</td><td><div>127.0.0.1:8000</div></td></tr><tr><td style="font-weight:bold;vertical-align:top;">HTTP_UPGRADE_INSECURE_REQUESTS</td><td style="vertical-align:top;">:</td><td><div>1</div></td></tr><tr><td style="font-weight:bold;vertical-align:top;">HTTP_USER_AGENT</td><td style="vertical-align:top;">:</td><td><div>Mozilla/5.0 (X11; Linux i686) AppleWebKit/537.36 (KHTML, like Gecko) Ubuntu Chromium/55.0.2883.87 Chrome/55.0.2883.87 Safari/537.36</div></td></tr><tr><td style="font-weight:bold;vertical-align:top;">PATH_INFO</td><td style="vertical-align:top;">:</td><td><div>/Apolo/default/index</div></td></tr><tr><td style="font-weight:bold;vertical-align:top;">QUERY_STRING</td><td style="vertical-align:top;">:</td><td><div></div></td></tr><tr><td style="font-weight:bold;vertical-align:top;">REMOTE_ADDR</td><td style="vertical-align:top;">:</td><td><div>127.0.0.1</div></td></tr><tr><td style="font-weight:bold;vertical-align:top;">REMOTE_PORT</td><td style="vertical-align:top;">:</td><td><div>40040</div></td></tr><tr><td style="font-weight:bold;vertical-align:top;">REQUEST_METHOD</td><td style="vertical-align:top;">:</td><td><div>GET</div></td></tr><tr><td style="font-weight:bold;vertical-align:top;">SCRIPT_NAME</td><td style="vertical-align:top;">:</td><td><div></div></td></tr><tr><td style="font-weight:bold;vertical-align:top;">SERVER_NAME</td><td style="vertical-align:top;">:</td><td><div>marcosajc-Vostro-3300</div></td></tr><tr><td style="font-weight:bold;vertical-align:top;">SERVER_PORT</td><td style="vertical-align:top;">:</td><td><div>8000</div></td></tr><tr><td style="font-weight:bold;vertical-align:top;">SERVER_PROTOCOL</td><td style="vertical-align:top;">:</td><td><div>HTTP/1.1</div></td></tr><tr><td style="font-weight:bold;vertical-align:top;">SERVER_SOFTWARE</td><td style="vertical-align:top;">:</td><td><div>Rocket 1.2.6</div></td></tr><tr><td style="font-weight:bold;vertical-align:top;">app_folders</td><td style="vertical-align:top;">:</td><td><div>set([&#x27;/home/marcosajc/Documentos/Sistemas/web2py/applications/welcome/&#x27;, &#x27;/home/marcosajc/Documentos/Sistemas/web2py/applications/Apolo/&#x27;, &#x27;/home/marcosajc/Documentos/Sistemas/web2py/applications/admin/&#x27;])</div></td></tr><tr><td style="font-weight:bold;vertical-align:top;">applications_parent</td><td style="vertical-align:top;">:</td><td><div>/home/marcosajc/Documentos/Sistemas/web2py</div></td></tr><tr><td style="font-weight:bold;vertical-align:top;">cmd_args</td><td style="vertical-align:top;">:</td><td><div><table></table></div></td></tr><tr><td style="font-weight:bold;vertical-align:top;">cmd_options</td><td style="vertical-align:top;">:</td><td><div>&lt;Values at 0xb56344cc: {&#x27;verbose&#x27;: False, &#x27;ip&#x27;: &#x27;127.0.0.1&#x27;, &#x27;debuglevel&#x27;: 30, &#x27;with_scheduler&#x27;: False, &#x27;shutdown_timeout&#x27;: 5, &#x27;taskbar&#x27;: False, &#x27;with_coverage&#x27;: False, &#x27;pid_filename&#x27;: &#x27;httpserver.pid&#x27;, &#x27;maxthreads&#x27;: None, &#x27;softcron&#x27;: False, &#x27;server_name&#x27;: &#x27;marcosajc-Vostro-3300&#x27;, &#x27;bpython&#x27;: False, &#x27;nogui&#x27;: False, &#x27;port&#x27;: 8000, &#x27;print_errors&#x27;: False, &#x27;extcron&#x27;: False, &#x27;runcron&#x27;: False, &#x27;run_system_tests&#x27;: False, &#x27;test&#x27;: None, &#x27;folder&#x27;: &#x27;/home/marcosajc/Documentos/Sistemas/web2py&#x27;, &#x27;config&#x27;: &#x27;&#x27;, &#x27;minthreads&#x27;: None, &#x27;shell&#x27;: None, &#x27;run&#x27;: &#x27;&#x27;, &#x27;log_filename&#x27;: &#x27;httpserver.log&#x27;, &#x27;profiler_dir&#x27;: None, &#x27;args&#x27;: [&#x27;&#x27;], &#x27;socket_timeout&#x27;: 5, &#x27;ssl_ca_certificate&#x27;: None, &#x27;scheduler&#x27;: None, &#x27;interfaces&#x27;: None, &#x27;ssl_private_key&#x27;: &#x27;&#x27;, &#x27;gae&#x27;: None, &#x27;password&#x27;: &#x27;******&#x27;, &#x27;request_queue_size&#x27;: 5, &#x27;ssl_certificate&#x27;: &#x27;&#x27;, &#x27;cronjob&#x27;: False, &#x27;numthreads&#x27;: None, &#x27;quiet&#x27;: False, &#x27;import_models&#x27;: False, &#x27;timeout&#x27;: 10, &#x27;plain&#x27;: False, &#x27;nobanner&#x27;: False}&gt;</div></td></tr><tr><td style="font-weight:bold;vertical-align:top;">db_sessions</td><td style="vertical-align:top;">:</td><td><div>set([])</div></td></tr><tr><td style="font-weight:bold;vertical-align:top;">debugging</td><td style="vertical-align:top;">:</td><td><div>True</div></td></tr><tr><td style="font-weight:bold;vertical-align:top;">gluon_parent</td><td style="vertical-align:top;">:</td><td><div>/home/marcosajc/Documentos/Sistemas/web2py</div></td></tr><tr><td style="font-weight:bold;vertical-align:top;">http_accept</td><td style="vertical-align:top;">:</td><td><div>text/html,application/xhtml+xml,application/xml;q=0.9,image/webp,*/*;q=0.8</div></td></tr><tr><td style="font-weight:bold;vertical-align:top;">http_accept_encoding</td><td style="vertical-align:top;">:</td><td><div>gzip, deflate, sdch, br</div></td></tr><tr><td style="font-weight:bold;vertical-align:top;">http_accept_language</td><td style="vertical-align:top;">:</td><td><div>es-ES,es;q=0.8</div></td></tr><tr><td style="font-weight:bold;vertical-align:top;">http_cache_control</td><td style="vertical-align:top;">:</td><td><div>max-age=0</div></td></tr><tr><td style="font-weight:bold;vertical-align:top;">http_connection</td><td style="vertical-align:top;">:</td><td><div>keep-alive</div></td></tr><tr><td style="font-weight:bold;vertical-align:top;">http_cookie</td><td style="vertical-align:top;">:</td><td><div>session_id_apolo=127.0.0.1-66c2d4a0-a74a-4243-a5e0-cbe8bdc4de12; session_id_welcome=127.0.0.1-47964f1f-5902-4684-978e-8ed9bbb40012; session_id_admin=127.0.0.1-84a18e97-ae98-415a-a48d-54fc2e31db65</div></td></tr><tr><td style="font-weight:bold;vertical-align:top;">http_host</td><td style="vertical-align:top;">:</td><td><div>127.0.0.1:8000</div></td></tr><tr><td style="font-weight:bold;vertical-align:top;">http_upgrade_insecure_requests</td><td style="vertical-align:top;">:</td><td><div>1</div></td></tr><tr><td style="font-weight:bold;vertical-align:top;">http_user_agent</td><td style="vertical-align:top;">:</td><td><div>Mozilla/5.0 (X11; Linux i686) AppleWebKit/537.36 (KHTML, like Gecko) Ubuntu Chromium/55.0.2883.87 Chrome/55.0.2883.87 Safari/537.36</div></td></tr><tr><td style="font-weight:bold;vertical-align:top;">is_jython</td><td style="vertical-align:top;">:</td><td><div>False</div></td></tr><tr><td style="font-weight:bold;vertical-align:top;">is_pypy</td><td style="vertical-align:top;">:</td><td><div>False</div></td></tr><tr><td style="font-weight:bold;vertical-align:top;">is_source</td><td style="vertical-align:top;">:</td><td><div>True</div></td></tr><tr><td style="font-weight:bold;vertical-align:top;">local_hosts</td><td style="vertical-align:top;">:</td><td><div><table><tr><td><div>::1</div></td></tr><tr><td><div>127.0.1.1</div></td></tr><tr><td><div>::ffff:127.0.0.1</div></td></tr><tr><td><div>127.0.0.1</div></td></tr><tr><td><div>marcosajc-Vostro-3300</div></td></tr></table></div></td></tr><tr><td style="font-weight:bold;vertical-align:top;">path_info</td><td style="vertical-align:top;">:</td><td><div>/Apolo/default/index</div></td></tr><tr><td style="font-weight:bold;vertical-align:top;">query_string</td><td style="vertical-align:top;">:</td><td><div></div></td></tr><tr><td style="font-weight:bold;vertical-align:top;">remote_addr</td><td style="vertical-align:top;">:</td><td><div>127.0.0.1</div></td></tr><tr><td style="font-weight:bold;vertical-align:top;">remote_port</td><td style="vertical-align:top;">:</td><td><div>40040</div></td></tr><tr><td style="font-weight:bold;vertical-align:top;">request_method</td><td style="vertical-align:top;">:</td><td><div>GET</div></td></tr><tr><td style="font-weight:bold;vertical-align:top;">request_uri</td><td style="vertical-align:top;">:</td><td><div>/Apolo/default/index</div></td></tr><tr><td style="font-weight:bold;vertical-align:top;">script_name</td><td style="vertical-align:top;">:</td><td><div></div></td></tr><tr><td style="font-weight:bold;vertical-align:top;">server_name</td><td style="vertical-align:top;">:</td><td><div>marcosajc-Vostro-3300</div></td></tr><tr><td style="font-weight:bold;vertical-align:top;">server_port</td><td style="vertical-align:top;">:</td><td><div>8000</div></td></tr><tr><td style="font-weight:bold;vertical-align:top;">server_protocol</td><td style="vertical-align:top;">:</td><td><div>HTTP/1.1</div></td></tr><tr><td style="font-weight:bold;vertical-align:top;">server_software</td><td style="vertical-align:top;">:</td><td><div>Rocket 1.2.6</div></td></tr><tr><td style="font-weight:bold;vertical-align:top;">web2py_path</td><td style="vertical-align:top;">:</td><td><div>/home/marcosajc/Documentos/Sistemas/web2py</div></td></tr><tr><td style="font-weight:bold;vertical-align:top;">web2py_version</td><td style="vertical-align:top;">:</td><td><div>2.14.6-stable+timestamp.2016.05.10.00.21.47</div></td></tr><tr><td style="font-weight:bold;vertical-align:top;">wsgi.errors</td><td style="vertical-align:top;">:</td><td><div>&lt;open file &#x27;&lt;stderr&gt;&#x27;, mode &#x27;w&#x27; at 0xb74cc0d0&gt;</div></td></tr><tr><td style="font-weight:bold;vertical-align:top;">wsgi.file_wrapper</td><td style="vertical-align:top;">:</td><td><div>&lt;class wsgiref.util.FileWrapper at 0xb5de74dc&gt;</div></td></tr><tr><td style="font-weight:bold;vertical-align:top;">wsgi.input</td><td style="vertical-align:top;">:</td><td><div>&lt;socket._fileobject object at 0xb39affac&gt;</div></td></tr><tr><td style="font-weight:bold;vertical-align:top;">wsgi.multiprocess</td><td style="vertical-align:top;">:</td><td><div>False</div></td></tr><tr><td style="font-weight:bold;vertical-align:top;">wsgi.multithread</td><td style="vertical-align:top;">:</td><td><div>True</div></td></tr><tr><td style="font-weight:bold;vertical-align:top;">wsgi.run_once</td><td style="vertical-align:top;">:</td><td><div>False</div></td></tr><tr><td style="font-weight:bold;vertical-align:top;">wsgi.url_scheme</td><td style="vertical-align:top;">:</td><td><div>http</div></td></tr><tr><td style="font-weight:bold;vertical-align:top;">wsgi.version</td><td style="vertical-align:top;">:</td><td><div><table><tr><td><div>1</div></td></tr><tr><td><div>0</div></td></tr></table></div></td></tr><tr><td style="font-weight:bold;vertical-align:top;">wsgi_errors</td><td style="vertical-align:top;">:</td><td><div>&lt;open file &#x27;&lt;stderr&gt;&#x27;, mode &#x27;w&#x27; at 0xb74cc0d0&gt;</div></td></tr><tr><td style="font-weight:bold;vertical-align:top;">wsgi_file_wrapper</td><td style="vertical-align:top;">:</td><td><div>&lt;class wsgiref.util.FileWrapper at 0xb5de74dc&gt;</div></td></tr><tr><td style="font-weight:bold;vertical-align:top;">wsgi_input</td><td style="vertical-align:top;">:</td><td><div>&lt;socket._fileobject object at 0xb39affac&gt;</div></td></tr><tr><td style="font-weight:bold;vertical-align:top;">wsgi_multiprocess</td><td style="vertical-align:top;">:</td><td><div>False</div></td></tr><tr><td style="font-weight:bold;vertical-align:top;">wsgi_multithread</td><td style="vertical-align:top;">:</td><td><div>True</div></td></tr><tr><td style="font-weight:bold;vertical-align:top;">wsgi_run_once</td><td style="vertical-align:top;">:</td><td><div>False</div></td></tr><tr><td style="font-weight:bold;vertical-align:top;">wsgi_url_scheme</td><td style="vertical-align:top;">:</td><td><div>http</div></td></tr><tr><td style="font-weight:bold;vertical-align:top;">wsgi_version</td><td style="vertical-align:top;">:</td><td><div><table><tr><td><div>1</div></td></tr><tr><td><div>0</div></td></tr></table></div></td></tr></table></div></td></tr><tr><td style="font-weight:bold;vertical-align:top;">extension</td><td style="vertical-align:top;">:</td><td><div>html</div></td></tr><tr><td style="font-weight:bold;vertical-align:top;">folder</td><td style="vertical-align:top;">:</td><td><div>/home/marcosajc/Documentos/Sistemas/web2py/applications/Apolo/</div></td></tr><tr><td style="font-weight:bold;vertical-align:top;">function</td><td style="vertical-align:top;">:</td><td><div>index</div></td></tr><tr><td style="font-weight:bold;vertical-align:top;">global_settings</td><td style="vertical-align:top;">:</td><td><div><table><tr><td style="font-weight:bold;vertical-align:top;">app_folders</td><td style="vertical-align:top;">:</td><td><div>set([&#x27;/home/marcosajc/Documentos/Sistemas/web2py/applications/welcome/&#x27;, &#x27;/home/marcosajc/Documentos/Sistemas/web2py/applications/Apolo/&#x27;, &#x27;/home/marcosajc/Documentos/Sistemas/web2py/applications/admin/&#x27;])</div></td></tr><tr><td style="font-weight:bold;vertical-align:top;">applications_parent</td><td style="vertical-align:top;">:</td><td><div>/home/marcosajc/Documentos/Sistemas/web2py</div></td></tr><tr><td style="font-weight:bold;vertical-align:top;">cmd_args</td><td style="vertical-align:top;">:</td><td><div><table></table></div></td></tr><tr><td style="font-weight:bold;vertical-align:top;">cmd_options</td><td style="vertical-align:top;">:</td><td><div>&lt;Values at 0xb56344cc: {&#x27;verbose&#x27;: False, &#x27;ip&#x27;: &#x27;127.0.0.1&#x27;, &#x27;debuglevel&#x27;: 30, &#x27;with_scheduler&#x27;: False, &#x27;shutdown_timeout&#x27;: 5, &#x27;taskbar&#x27;: False, &#x27;with_coverage&#x27;: False, &#x27;pid_filename&#x27;: &#x27;httpserver.pid&#x27;, &#x27;maxthreads&#x27;: None, &#x27;softcron&#x27;: False, &#x27;server_name&#x27;: &#x27;marcosajc-Vostro-3300&#x27;, &#x27;bpython&#x27;: False, &#x27;nogui&#x27;: False, &#x27;port&#x27;: 8000, &#x27;print_errors&#x27;: False, &#x27;extcron&#x27;: False, &#x27;runcron&#x27;: False, &#x27;run_system_tests&#x27;: False, &#x27;test&#x27;: None, &#x27;folder&#x27;: &#x27;/home/marcosajc/Documentos/Sistemas/web2py&#x27;, &#x27;config&#x27;: &#x27;&#x27;, &#x27;minthreads&#x27;: None, &#x27;shell&#x27;: None, &#x27;run&#x27;: &#x27;&#x27;, &#x27;log_filename&#x27;: &#x27;httpserver.log&#x27;, &#x27;profiler_dir&#x27;: None, &#x27;args&#x27;: [&#x27;&#x27;], &#x27;socket_timeout&#x27;: 5, &#x27;ssl_ca_certificate&#x27;: None, &#x27;scheduler&#x27;: None, &#x27;interfaces&#x27;: None, &#x27;ssl_private_key&#x27;: &#x27;&#x27;, &#x27;gae&#x27;: None, &#x27;password&#x27;: &#x27;******&#x27;, &#x27;request_queue_size&#x27;: 5, &#x27;ssl_certificate&#x27;: &#x27;&#x27;, &#x27;cronjob&#x27;: False, &#x27;numthreads&#x27;: None, &#x27;quiet&#x27;: False, &#x27;import_models&#x27;: False, &#x27;timeout&#x27;: 10, &#x27;plain&#x27;: False, &#x27;nobanner&#x27;: False}&gt;</div></td></tr><tr><td style="font-weight:bold;vertical-align:top;">db_sessions</td><td style="vertical-align:top;">:</td><td><div>set([])</div></td></tr><tr><td style="font-weight:bold;vertical-align:top;">debugging</td><td style="vertical-align:top;">:</td><td><div>True</div></td></tr><tr><td style="font-weight:bold;vertical-align:top;">gluon_parent</td><td style="vertical-align:top;">:</td><td><div>/home/marcosajc/Documentos/Sistemas/web2py</div></td></tr><tr><td style="font-weight:bold;vertical-align:top;">is_jython</td><td style="vertical-align:top;">:</td><td><div>False</div></td></tr><tr><td style="font-weight:bold;vertical-align:top;">is_pypy</td><td style="vertical-align:top;">:</td><td><div>False</div></td></tr><tr><td style="font-weight:bold;vertical-align:top;">is_source</td><td style="vertical-align:top;">:</td><td><div>True</div></td></tr><tr><td style="font-weight:bold;vertical-align:top;">local_hosts</td><td style="vertical-align:top;">:</td><td><div><table><tr><td><div>::1</div></td></tr><tr><td><div>127.0.1.1</div></td></tr><tr><td><div>::ffff:127.0.0.1</div></td></tr><tr><td><div>127.0.0.1</div></td></tr><tr><td><div>marcosajc-Vostro-3300</div></td></tr></table></div></td></tr><tr><td style="font-weight:bold;vertical-align:top;">web2py_version</td><td style="vertical-align:top;">:</td><td><div>2.14.6-stable+timestamp.2016.05.10.00.21.47</div></td></tr></table></div></td></tr><tr><td style="font-weight:bold;vertical-align:top;">is_https</td><td style="vertical-align:top;">:</td><td><div>False</div></td></tr><tr><td style="font-weight:bold;vertical-align:top;">is_local</td><td style="vertical-align:top;">:</td><td><div>True</div></td></tr><tr><td style="font-weight:bold;vertical-align:top;">is_restful</td><td style="vertical-align:top;">:</td><td><div>False</div></td></tr><tr><td style="font-weight:bold;vertical-align:top;">is_scheduler</td><td style="vertical-align:top;">:</td><td><div>False</div></td></tr><tr><td style="font-weight:bold;vertical-align:top;">is_shell</td><td style="vertical-align:top;">:</td><td><div>False</div></td></tr><tr><td style="font-weight:bold;vertical-align:top;">now</td><td style="vertical-align:top;">:</td><td><div>datetime.datetime(2017, 2, 16, 23, 2, 52, 719094)</div></td></tr><tr><td style="font-weight:bold;vertical-align:top;">raw_args</td><td style="vertical-align:top;">:</td><td><div></div></td></tr><tr><td style="font-weight:bold;vertical-align:top;">raw_extension</td><td style="vertical-align:top;">:</td><td><div>None</div></td></tr><tr><td style="font-weight:bold;vertical-align:top;">url</td><td style="vertical-align:top;">:</td><td><div>/Apolo/default/index</div></td></tr><tr><td style="font-weight:bold;vertical-align:top;">utcnow</td><td style="vertical-align:top;">:</td><td><div>datetime.datetime(2017, 2, 17, 3, 2, 52, 719133)</div></td></tr><tr><td style="font-weight:bold;vertical-align:top;">wsgi</td><td style="vertical-align:top;">:</td><td><div>&lt;gluon.main.LazyWSGI object at 0xac4aac8c&gt;</div></td></tr></table></div>'
tRp70
sS'frames'
p71
(lp72
(dp73
S'file'
p74
S'/home/marcosajc/Documentos/Sistemas/web2py/gluon/restricted.py'
p75
sS'dump'
p76
(dp77
S'environment'
p78
S"{'A': <class 'gluon.html.A'>, 'ANY_OF': <class 'gluon.validators.ANY_OF'>, 'ASSIGNJS': <function ASSIGNJS>, 'AppConfig': <function AppConfig>, 'Auth': <class 'gluon.tools.Auth'>, 'B': <class 'gluon.html.B'>, 'BEAUTIFY': <class 'gluon.html.BEAUTIFY'>, 'BODY': <class 'gluon.html.BODY'>, 'BR': <class 'gluon.html.BR'>, 'BUTTON': <class 'gluon.html.BUTTON'>, ...}"
p79
sS'ccode'
p80
S'<code object <module> at 0xb11e3800, file "/home...2py/applications/Apolo/models/models.py", line 1>'
p81
ssS'lnum'
p82
I227
sS'lines'
p83
(dp84
I224
S'            ccode = code'
p85
sI225
S'        else:'
p86
sI226
S'            ccode = compile2(code, layer)'
p87
sI227
S'        exec ccode in environment'
p88
sI228
S'    except HTTP:'
p89
sI229
S'        raise'
p90
sI230
S'    except RestrictedError:'
p91
sI231
S'        # do not encapsulate (obfuscate) the original RestrictedError'
p92
sI222
S'    try:'
p93
sI223
S'        if isinstance(code, types.CodeType):'
p94
ssS'call'
p95
S'(code=\'DB = DAL("postgres://cbvusb:1234@localhost/cbvus...on\\\',\\\'date\\\'),\\n    Field(\\\'tipo\\\'),\\n    migrate=True)\', environment={\'A\': <class \'gluon.html.A\'>, \'ANY_OF\': <class \'gluon.validators.ANY_OF\'>, \'ASSIGNJS\': <function ASSIGNJS>, \'AppConfig\': <function AppConfig>, \'Auth\': <class \'gluon.tools.Auth\'>, \'B\': <class \'gluon.html.B\'>, \'BEAUTIFY\': <class \'gluon.html.BEAUTIFY\'>, \'BODY\': <class \'gluon.html.BODY\'>, \'BR\': <class \'gluon.html.BR\'>, \'BUTTON\': <class \'gluon.html.BUTTON\'>, ...}, layer=\'/home/marcosajc/Documentos/Sistemas/web2py/applications/Apolo/models/models.py\')'
p96
sS'func'
p97
S'restricted'
p98
sa(dp99
g74
S'/home/marcosajc/Documentos/Sistemas/web2py/applications/Apolo/models/models.py'
p100
sg76
(dp101
S'migrate'
p102
S'undefined'
p103
sS'builtinTrue'
p104
S'True'
p105
ssg82
I31
sg83
(dp106
I32
S''
sI33
S"DB.define_table('servicio',"
p107
sI34
S"    Field('CodServicio',unique = True,notnull = True),"
p108
sI35
S"    Field('Registra','reference bombero',notnull = True),"
p109
sI26
S"        Field('iniciales', type='string'),"
p110
sI27
S"        Field('tipo_sangre', type='string'),"
p111
sI28
S"        Field('id_persona', type='reference persona', required=True, notnull=True, unique=True),"
p112
sI29
S"        Field('id_usuario', type='reference usuario', required=True, notnull=True, unique=True),"
p113
sI30
S"        Field('hijos', type='integer', default=0),"
p114
sI31
S'        migrate=True)'
p115
ssg95
S'()'
p116
sg97
S'<module>'
p117
sa(dp118
g74
S'/home/marcosajc/Documentos/Sistemas/web2py/gluon/packages/dal/pydal/base.py'
p119
sg76
(dp120
S'fields'
p121
S'(<pydal.objects.Field object>, <pydal.objects.Field object>, <pydal.objects.Field object>, <pydal.objects.Field object>, <pydal.objects.Field object>, <pydal.objects.Field object>, <pydal.objects.Field object>)'
p122
sS'self'
p123
S'<DAL uri="postgres:******@localhost/cbvusb">'
p124
sS'args'
p125
S"{'migrate': True}"
p126
sS'tablename'
p127
S"'bombero'"
p128
sS'table'
p129
g103
sS'self.lazy_define_table'
p130
S'<bound method DAL.lazy_define_table of <DAL uri="postgres:******@localhost/cbvusb">>'
p131
ssg82
I834
sg83
(dp132
I832
S'            table = None'
p133
sI833
S'        else:'
p134
sI834
S'            table = self.lazy_define_table(tablename,*fields,**args)'
p135
sI835
S'        if not tablename in self.tables:'
p136
sI836
S'            self.tables.append(tablename)'
p137
sI837
S'        return table'
p138
sI838
S''
sI829
S'                    % (tablename,invalid_args))'
p139
sI830
S'        if self._lazy_tables and tablename not in self._LAZY_TABLES:'
p140
sI831
S'            self._LAZY_TABLES[tablename] = (tablename,fields,args)'
p141
ssg95
S'(self=<DAL uri="postgres:******@localhost/cbvusb">, tablename=\'bombero\', *fields=(<pydal.objects.Field object>, <pydal.objects.Field object>, <pydal.objects.Field object>, <pydal.objects.Field object>, <pydal.objects.Field object>, <pydal.objects.Field object>, <pydal.objects.Field object>), **args={\'migrate\': True})'
p142
sg97
S'define_table'
p143
sa(dp144
g74
S'/home/marcosajc/Documentos/Sistemas/web2py/gluon/packages/dal/pydal/base.py'
p145
sg76
(dp146
S'polymodel'
p147
S'None'
p148
ssg82
I873
sg83
(dp149
I868
S'            try:'
p150
sI869
S'                GLOBAL_LOCKER.acquire()'
p151
sI870
S'                self._lastsql = self._adapter.create_table('
p152
sI871
S'                    table,migrate=migrate,'
p153
sI872
S'                    fake_migrate=fake_migrate,'
p154
sI873
S'                    polymodel=polymodel)'
p155
sI874
S'            finally:'
p156
sI875
S'                GLOBAL_LOCKER.release()'
p157
sI876
S'        else:'
p158
sI877
S'            table._dbt = None'
p159
ssg95
S'(self=<DAL uri="postgres:******@localhost/cbvusb">, tablename=\'bombero\', *fields=(<pydal.objects.Field object>, <pydal.objects.Field object>, <pydal.objects.Field object>, <pydal.objects.Field object>, <pydal.objects.Field object>, <pydal.objects.Field object>, <pydal.objects.Field object>), **args={\'migrate\': True})'
p160
sg97
S'lazy_define_table'
p161
sa(dp162
g74
S'/home/marcosajc/Documentos/Sistemas/web2py/gluon/packages/dal/pydal/adapters/base.py'
p163
sg76
(dp164
S'fake_migrate'
p165
S'False'
p166
ssg82
I510
sg83
(dp167
I512
S'        return query'
p168
sI513
S''
sI514
S'    def migrate_table('
p169
sI505
S'            if sql_fields != sql_fields_old:'
p170
sI506
S'                self.migrate_table('
p171
sI507
S'                    table,'
p172
sI508
S'                    sql_fields, sql_fields_old,'
p173
sI509
S'                    sql_fields_aux, None,'
p174
sI510
S'                    fake_migrate=fake_migrate'
p175
sI511
S'                    )'
p176
ssg95
S'(self=<pydal.adapters.postgres.PostgreSQLAdapter object>, table=<Table bombero (id, carnet, imagen_perfil, iniciales, tipo_sangre, id_persona, id_usuario, hijos)>, migrate=True, fake_migrate=False, polymodel=None)'
p177
sg97
S'create_table'
p178
sa(dp179
g74
S'/home/marcosajc/Documentos/Sistemas/web2py/gluon/packages/dal/pydal/adapters/base.py'
p180
sg76
(dp181
S'self'
p182
S'<pydal.adapters.postgres.PostgreSQLAdapter object>'
p183
sS'self.execute'
p184
S'<bound method PostgreSQLAdapter.execute of <pydal.adapters.postgres.PostgreSQLAdapter object>>'
p185
sS'sub_query'
p186
S"'ALTER TABLE bombero ADD hijos INTEGER;'"
p187
ssg82
I623
sg83
(dp188
I618
S'                    if fake_migrate:'
p189
sI619
S'                        if db._adapter.commit_on_alter_table:'
p190
sI620
S'                            self.save_dbt(table,sql_fields_current)'
p191
sI621
S"                        self.log('faked!\\n', table)"
p192
sI622
S'                    else:'
p193
sI623
S'                        self.execute(sub_query)'
p194
sI624
S'                        # Caveat: mysql, oracle and firebird'
p195
sI625
S'                        # do not allow multiple alter table'
p196
sI626
S'                        # in one transaction so we must commit'
p197
sI627
S'                        # partial transactions and'
p198
ssg95
S"(self=<pydal.adapters.postgres.PostgreSQLAdapter object>, table=<Table bombero (id, carnet, imagen_perfil, iniciales, tipo_sangre, id_persona, id_usuario, hijos)>, sql_fields={'carnet': {'length': 512, 'notnull': True, 'sortable': 2, 'sql': 'INTEGER NOT NULL UNIQUE', 'type': 'integer', 'unique': True}, 'hijos': {'length': 512, 'notnull': False, 'sortable': 8, 'sql': 'INTEGER', 'type': 'integer', 'unique': False}, 'id': {'length': 512, 'notnull': False, 'sortable': 1, 'sql': 'SERIAL PRIMARY KEY', 'type': 'id', 'unique': False}, 'id_persona': {'length': 512, 'notnull': True, 'sortable': 6, 'sql': 'INTEGER REFERENCES persona (id) ON DELETE CASCADE  NOT NULL  UNIQUE', 'type': 'reference persona', 'unique': True}, 'id_usuario': {'length': 512, 'notnull': True, 'sortable': 7, 'sql': 'INTEGER REFERENCES usuario (id) ON DELETE CASCADE  NOT NULL  UNIQUE', 'type': 'reference usuario', 'unique': True}, 'imagen_perfil': {'length': 32768, 'notnull': False, 'sortable': 3, 'sql': 'TEXT', 'type': 'text', 'unique': False}, 'iniciales': {'length': 512, 'notnull': False, 'sortable': 4, 'sql': 'VARCHAR(512)', 'type': 'string', 'unique': False}, 'tipo_sangre': {'length': 512, 'notnull': False, 'sortable': 5, 'sql': 'VARCHAR(512)', 'type': 'string', 'unique': False}}, sql_fields_old={'carnet': {'length': 512, 'notnull': True, 'sortable': 2, 'sql': 'INTEGER NOT NULL UNIQUE', 'type': 'integer', 'unique': True}, 'id': {'length': 512, 'notnull': False, 'sortable': 1, 'sql': 'SERIAL PRIMARY KEY', 'type': 'id', 'unique': False}, 'id_persona': {'length': 512, 'notnull': True, 'sortable': 6, 'sql': 'INTEGER REFERENCES persona (id) ON DELETE CASCADE  NOT NULL  UNIQUE', 'type': 'reference persona', 'unique': True}, 'id_usuario': {'length': 512, 'notnull': True, 'sortable': 7, 'sql': 'INTEGER REFERENCES usuario (id) ON DELETE CASCADE  NOT NULL  UNIQUE', 'type': 'reference usuario', 'unique': True}, 'imagen_perfil': {'length': 32768, 'notnull': False, 'sortable': 3, 'sql': 'TEXT', 'type': 'text', 'unique': False}, 'iniciales': {'length': 512, 'notnull': False, 'sortable': 4, 'sql': 'VARCHAR(512)', 'type': 'string', 'unique': False}, 'tipo_sangre': {'length': 512, 'notnull': False, 'sortable': 5, 'sql': 'VARCHAR(512)', 'type': 'string', 'unique': False}}, sql_fields_aux={'carnet': {'sql': 'INTEGER NOT NULL UNIQUE'}, 'hijos': {'sql': 'INTEGER'}, 'id': {'sql': 'SERIAL PRIMARY KEY'}, 'id_persona': {'sql': 'INTEGER REFERENCES persona (id) ON DELETE CASCADE  NOT NULL  UNIQUE'}, 'id_usuario': {'sql': 'INTEGER REFERENCES usuario (id) ON DELETE CASCADE  NOT NULL  UNIQUE'}, 'imagen_perfil': {'sql': 'TEXT'}, 'iniciales': {'sql': 'VARCHAR(512)'}, 'tipo_sangre': {'sql': 'VARCHAR(512)'}}, logfile=None, fake_migrate=False)"
p199
sg97
S'migrate_table'
p200
sa(dp201
g74
S'/home/marcosajc/Documentos/Sistemas/web2py/gluon/packages/dal/pydal/adapters/postgres.py'
p202
sg76
(dp203
S'a'
S"('ALTER TABLE bombero ADD hijos INTEGER;',)"
p204
sS'self'
p205
S'<pydal.adapters.postgres.PostgreSQLAdapter object>'
p206
sS'b'
g21
sS'BaseAdapter.execute'
p207
S'<unbound method BaseAdapter.execute>'
p208
sS'global BaseAdapter'
p209
S"<class 'pydal.adapters.base.BaseAdapter'>"
p210
ssg82
I362
sg83
(dp211
I357
S''
sI358
S'    def execute(self, *a, **b):'
p212
sI359
S'        if PY2 and self.driver_name == "pg8000":'
p213
sI360
S'            a = list(a)'
p214
sI361
S"            a[0] = a[0].decode('utf8')"
p215
sI362
S'        return BaseAdapter.execute(self, *a, **b)'
p216
sI363
S''
sI364
S''
sI365
S'class NewPostgreSQLAdapter(PostgreSQLAdapter):'
p217
sI366
S"    drivers = ('psycopg2','pg8000')"
p218
ssg95
S"(self=<pydal.adapters.postgres.PostgreSQLAdapter object>, *a=('ALTER TABLE bombero ADD hijos INTEGER;',), **b={})"
p219
sg97
S'execute'
p220
sa(dp221
g74
S'/home/marcosajc/Documentos/Sistemas/web2py/gluon/packages/dal/pydal/adapters/base.py'
p222
sg76
(dp223
S'a'
S"('ALTER TABLE bombero ADD hijos INTEGER;',)"
p224
sS'self'
p225
S'<pydal.adapters.postgres.PostgreSQLAdapter object>'
p226
sS'b'
g21
sS'self.log_execute'
p227
S'<bound method PostgreSQLAdapter.log_execute of <pydal.adapters.postgres.PostgreSQLAdapter object>>'
p228
ssg82
I1388
sg83
(dp229
I1383
S'        self.db._timings.append((command,time.time()-t0))'
p230
sI1384
S'        del self.db._timings[:-TIMINGSSIZE]'
p231
sI1385
S'        return ret'
p232
sI1386
S''
sI1387
S'    def execute(self, *a, **b):'
p233
sI1388
S'        return self.log_execute(*a, **b)'
p234
sI1389
S''
sI1390
S'    def execute_test_query(self):'
p235
sI1391
S'        return self.execute(self.test_query)'
p236
sI1392
S''
ssg95
S"(self=<pydal.adapters.postgres.PostgreSQLAdapter object>, *a=('ALTER TABLE bombero ADD hijos INTEGER;',), **b={})"
p237
sg97
g220
sa(dp238
g74
S'/home/marcosajc/Documentos/Sistemas/web2py/gluon/packages/dal/pydal/adapters/base.py'
p239
sg76
(dp240
S'a'
S"('ALTER TABLE bombero ADD hijos INTEGER;',)"
p241
sS'b'
g21
sS'self'
p242
S'<pydal.adapters.postgres.PostgreSQLAdapter object>'
p243
sS'ret'
p244
g103
sS'command'
p245
S"'ALTER TABLE bombero ADD hijos INTEGER;'"
p246
sS'self.get_cursor'
p247
S'<bound method PostgreSQLAdapter.get_cursor of <pydal.adapters.postgres.PostgreSQLAdapter object>>'
p248
sS').execute'
p249
g103
ssg82
I1382
sg83
(dp250
I1377
S'            command = self.filter_sql_command(command)'
p251
sI1378
S'        if self.db._debug:'
p252
sI1379
S"            self.db.logger.debug('SQL: %s' % command)"
p253
sI1380
S'        self.db._lastsql = command'
p254
sI1381
S'        t0 = time.time()'
p255
sI1382
S'        ret = self.get_cursor().execute(command, *a[1:], **b)'
p256
sI1383
S'        self.db._timings.append((command,time.time()-t0))'
p257
sI1384
S'        del self.db._timings[:-TIMINGSSIZE]'
p258
sI1385
S'        return ret'
p259
sI1386
S''
ssg95
S"(self=<pydal.adapters.postgres.PostgreSQLAdapter object>, *a=('ALTER TABLE bombero ADD hijos INTEGER;',), **b={})"
p260
sg97
S'log_execute'
p261
sasS'pyver'
p262
S'Python 2.7.12: /usr/bin/python (prefix: /usr)'
p263
sS'session'
p264
g69
(S's\x1a\x00\x00\x00<div><table></table></div>'
tRp265
sS'etype'
p266
S"<class 'psycopg2.ProgrammingError'>"
p267
sS'date'
p268
S'Thu Feb 16 23:02:52 2017'
p269
sS'response'
p270
g69
(S'sn>\x00\x00<div><table><tr><td style="font-weight:bold;vertical-align:top;">body</td><td style="vertical-align:top;">:</td><td><div>&lt;cStringIO.StringO object at 0xac4aa5a0&gt;</div></td></tr><tr><td style="font-weight:bold;vertical-align:top;">cookies</td><td style="vertical-align:top;">:</td><td><div><table><tr><td style="font-weight:bold;vertical-align:top;">session_id_apolo</td><td style="vertical-align:top;">:</td><td><div>127.0.0.1-bb7e5d30-cade-4ab0-bcb1-26a8d2bb1294<table><tr><td style="font-weight:bold;vertical-align:top;">comment</td><td style="vertical-align:top;">:</td><td><div></div></td></tr><tr><td style="font-weight:bold;vertical-align:top;">domain</td><td style="vertical-align:top;">:</td><td><div></div></td></tr><tr><td style="font-weight:bold;vertical-align:top;">expires</td><td style="vertical-align:top;">:</td><td><div></div></td></tr><tr><td style="font-weight:bold;vertical-align:top;">httponly</td><td style="vertical-align:top;">:</td><td><div></div></td></tr><tr><td style="font-weight:bold;vertical-align:top;">max-age</td><td style="vertical-align:top;">:</td><td><div></div></td></tr><tr><td style="font-weight:bold;vertical-align:top;">path</td><td style="vertical-align:top;">:</td><td><div>/</div></td></tr><tr><td style="font-weight:bold;vertical-align:top;">secure</td><td style="vertical-align:top;">:</td><td><div></div></td></tr><tr><td style="font-weight:bold;vertical-align:top;">version</td><td style="vertical-align:top;">:</td><td><div></div></td></tr></table></div></td></tr></table></div></td></tr><tr><td style="font-weight:bold;vertical-align:top;">delimiters</td><td style="vertical-align:top;">:</td><td><div><table><tr><td><div>{{</div></td></tr><tr><td><div>}}</div></td></tr></table></div></td></tr><tr><td style="font-weight:bold;vertical-align:top;">files</td><td style="vertical-align:top;">:</td><td><div><table></table></div></td></tr><tr><td style="font-weight:bold;vertical-align:top;">flash</td><td style="vertical-align:top;">:</td><td><div></div></td></tr><tr><td style="font-weight:bold;vertical-align:top;">form_label_separator</td><td style="vertical-align:top;">:</td><td><div></div></td></tr><tr><td style="font-weight:bold;vertical-align:top;">formstyle</td><td style="vertical-align:top;">:</td><td><div>bootstrap3_inline</div></td></tr><tr><td style="font-weight:bold;vertical-align:top;">generic_patterns</td><td style="vertical-align:top;">:</td><td><div><table><tr><td><div>*</div></td></tr></table></div></td></tr><tr><td style="font-weight:bold;vertical-align:top;">google_analytics_id</td><td style="vertical-align:top;">:</td><td><div>None</div></td></tr><tr><td style="font-weight:bold;vertical-align:top;">headers</td><td style="vertical-align:top;">:</td><td><div><table><tr><td style="font-weight:bold;vertical-align:top;">X-Powered-By</td><td style="vertical-align:top;">:</td><td><div>web2py</div></td></tr></table></div></td></tr><tr><td style="font-weight:bold;vertical-align:top;">logo</td><td style="vertical-align:top;">:</td><td><div><a class="navbar-brand" href="http://www.web2py.com/" id="web2py-logo"><b>web<span>2</span>py</b>&trade;&nbsp;</a></div></td></tr><tr><td style="font-weight:bold;vertical-align:top;">menu</td><td style="vertical-align:top;">:</td><td><div><table><tr><td><div><table><tr><td><div>Inicio</div></td></tr><tr><td><div>False</div></td></tr><tr><td><div>/Apolo/default/index</div></td></tr><tr><td><div><table></table></div></td></tr></table></div></td></tr><tr><td><div><table><tr><td><div>Mis Sitios</div></td></tr><tr><td><div>False</div></td></tr><tr><td><div>/admin/default/site</div></td></tr></table></div></td></tr><tr><td><div><table><tr><td><div>Esta Aplicaci\xc3\xb3n</div></td></tr><tr><td><div>False</div></td></tr><tr><td><div>#</div></td></tr><tr><td><div><table><tr><td><div><table><tr><td><div>Design</div></td></tr><tr><td><div>False</div></td></tr><tr><td><div>/admin/default/design/Apolo</div></td></tr></table></div></td></tr><tr><td><div><li class="divider"></li></div></td></tr><tr><td><div><table><tr><td><div>Controlador</div></td></tr><tr><td><div>False</div></td></tr><tr><td><div>/admin/default/edit/Apolo/controllers/default.py</div></td></tr></table></div></td></tr><tr><td><div><table><tr><td><div>Vista</div></td></tr><tr><td><div>False</div></td></tr><tr><td><div>/admin/default/edit/Apolo/views/default/index.html</div></td></tr></table></div></td></tr><tr><td><div><table><tr><td><div>Modelo BDD</div></td></tr><tr><td><div>False</div></td></tr><tr><td><div>/admin/default/edit/Apolo/models/db.py</div></td></tr></table></div></td></tr><tr><td><div><table><tr><td><div>Modelo "menu"</div></td></tr><tr><td><div>False</div></td></tr><tr><td><div>/admin/default/edit/Apolo/models/menu.py</div></td></tr></table></div></td></tr><tr><td><div><table><tr><td><div>Config.ini</div></td></tr><tr><td><div>False</div></td></tr><tr><td><div>/admin/default/edit/Apolo/private/appconfig.ini</div></td></tr></table></div></td></tr><tr><td><div><table><tr><td><div>Dise\xc3\xb1o de p\xc3\xa1gina</div></td></tr><tr><td><div>False</div></td></tr><tr><td><div>/admin/default/edit/Apolo/views/layout.html</div></td></tr></table></div></td></tr><tr><td><div><table><tr><td><div>Hoja de estilo</div></td></tr><tr><td><div>False</div></td></tr><tr><td><div>/admin/default/edit/Apolo/static/css/web2py-bootstrap3.css</div></td></tr></table></div></td></tr><tr><td><div><table><tr><td><div>Base de datos</div></td></tr><tr><td><div>False</div></td></tr><tr><td><div>/Apolo/appadmin/index</div></td></tr></table></div></td></tr><tr><td><div><table><tr><td><div>Errores</div></td></tr><tr><td><div>False</div></td></tr><tr><td><div>/admin/default/errors/Apolo</div></td></tr></table></div></td></tr><tr><td><div><table><tr><td><div>Acerca de</div></td></tr><tr><td><div>False</div></td></tr><tr><td><div>/admin/default/about/Apolo</div></td></tr></table></div></td></tr></table></div></td></tr></table></div></td></tr><tr><td><div><table><tr><td><div>web2py.com</div></td></tr><tr><td><div>False</div></td></tr><tr><td><div>#</div></td></tr><tr><td><div><table><tr><td><div><table><tr><td><div>Descargas</div></td></tr><tr><td><div>False</div></td></tr><tr><td><div>http://www.web2py.com/examples/default/download</div></td></tr></table></div></td></tr><tr><td><div><table><tr><td><div>Soporte</div></td></tr><tr><td><div>False</div></td></tr><tr><td><div>http://www.web2py.com/examples/default/support</div></td></tr></table></div></td></tr><tr><td><div><table><tr><td><div>Demostraci\xc3\xb3n</div></td></tr><tr><td><div>False</div></td></tr><tr><td><div>http://web2py.com/demo_admin</div></td></tr></table></div></td></tr><tr><td><div><table><tr><td><div>Ejemplos R\xc3\xa1pidos</div></td></tr><tr><td><div>False</div></td></tr><tr><td><div>http://web2py.com/examples/default/examples</div></td></tr></table></div></td></tr><tr><td><div><table><tr><td><div>FAQ</div></td></tr><tr><td><div>False</div></td></tr><tr><td><div>http://web2py.com/AlterEgo</div></td></tr></table></div></td></tr><tr><td><div><table><tr><td><div>V\xc3\xaddeos</div></td></tr><tr><td><div>False</div></td></tr><tr><td><div>http://www.web2py.com/examples/default/videos/</div></td></tr></table></div></td></tr><tr><td><div><table><tr><td><div>Aplicaciones Libres</div></td></tr><tr><td><div>False</div></td></tr><tr><td><div>http://web2py.com/appliances</div></td></tr></table></div></td></tr><tr><td><div><table><tr><td><div>Plugins</div></td></tr><tr><td><div>False</div></td></tr><tr><td><div>http://web2py.com/plugins</div></td></tr></table></div></td></tr><tr><td><div><table><tr><td><div>Recetas</div></td></tr><tr><td><div>False</div></td></tr><tr><td><div>http://web2pyslices.com/</div></td></tr></table></div></td></tr></table></div></td></tr></table></div></td></tr><tr><td><div><table><tr><td><div>Documentaci\xc3\xb3n</div></td></tr><tr><td><div>False</div></td></tr><tr><td><div>#</div></td></tr><tr><td><div><table><tr><td><div><table><tr><td><div>Online book</div></td></tr><tr><td><div>False</div></td></tr><tr><td><div>http://www.web2py.com/book</div></td></tr></table></div></td></tr><tr><td><div><li class="divider"></li></div></td></tr><tr><td><div><table><tr><td><div>Prefacio</div></td></tr><tr><td><div>False</div></td></tr><tr><td><div>http://www.web2py.com/book/default/chapter/00</div></td></tr></table></div></td></tr><tr><td><div><table><tr><td><div>Introducci\xc3\xb3n</div></td></tr><tr><td><div>False</div></td></tr><tr><td><div>http://www.web2py.com/book/default/chapter/01</div></td></tr></table></div></td></tr><tr><td><div><table><tr><td><div>Python</div></td></tr><tr><td><div>False</div></td></tr><tr><td><div>http://www.web2py.com/book/default/chapter/02</div></td></tr></table></div></td></tr><tr><td><div><table><tr><td><div>Resumen</div></td></tr><tr><td><div>False</div></td></tr><tr><td><div>http://www.web2py.com/book/default/chapter/03</div></td></tr></table></div></td></tr><tr><td><div><table><tr><td><div>El N\xc3\xbacleo</div></td></tr><tr><td><div>False</div></td></tr><tr><td><div>http://www.web2py.com/book/default/chapter/04</div></td></tr></table></div></td></tr><tr><td><div><table><tr><td><div>Las Vistas</div></td></tr><tr><td><div>False</div></td></tr><tr><td><div>http://www.web2py.com/book/default/chapter/05</div></td></tr></table></div></td></tr><tr><td><div><table><tr><td><div>Base de datos</div></td></tr><tr><td><div>False</div></td></tr><tr><td><div>http://www.web2py.com/book/default/chapter/06</div></td></tr></table></div></td></tr><tr><td><div><table><tr><td><div>Formularios y validadores</div></td></tr><tr><td><div>False</div></td></tr><tr><td><div>http://www.web2py.com/book/default/chapter/07</div></td></tr></table></div></td></tr><tr><td><div><table><tr><td><div>Correo electr\xc3\xb3nico y SMS</div></td></tr><tr><td><div>False</div></td></tr><tr><td><div>http://www.web2py.com/book/default/chapter/08</div></td></tr></table></div></td></tr><tr><td><div><table><tr><td><div>Control de Acceso</div></td></tr><tr><td><div>False</div></td></tr><tr><td><div>http://www.web2py.com/book/default/chapter/09</div></td></tr></table></div></td></tr><tr><td><div><table><tr><td><div>Servicios</div></td></tr><tr><td><div>False</div></td></tr><tr><td><div>http://www.web2py.com/book/default/chapter/10</div></td></tr></table></div></td></tr><tr><td><div><table><tr><td><div>Recetas AJAX</div></td></tr><tr><td><div>False</div></td></tr><tr><td><div>http://www.web2py.com/book/default/chapter/11</div></td></tr></table></div></td></tr><tr><td><div><table><tr><td><div>Componentes y Plugins</div></td></tr><tr><td><div>False</div></td></tr><tr><td><div>http://www.web2py.com/book/default/chapter/12</div></td></tr></table></div></td></tr><tr><td><div><table><tr><td><div>Recetas de despliegue</div></td></tr><tr><td><div>False</div></td></tr><tr><td><div>http://www.web2py.com/book/default/chapter/13</div></td></tr></table></div></td></tr><tr><td><div><table><tr><td><div>Otras Recetas</div></td></tr><tr><td><div>False</div></td></tr><tr><td><div>http://www.web2py.com/book/default/chapter/14</div></td></tr></table></div></td></tr><tr><td><div><table><tr><td><div>Helping web2py</div></td></tr><tr><td><div>False</div></td></tr><tr><td><div>http://www.web2py.com/book/default/chapter/15</div></td></tr></table></div></td></tr><tr><td><div><table><tr><td><div>Buy web2py\'s book</div></td></tr><tr><td><div>False</div></td></tr><tr><td><div>http://stores.lulu.com/web2py</div></td></tr></table></div></td></tr></table></div></td></tr></table></div></td></tr><tr><td><div><table><tr><td><div>Comunidad</div></td></tr><tr><td><div>False</div></td></tr><tr><td><div>None</div></td></tr><tr><td><div><table><tr><td><div><table><tr><td><div>Grupos</div></td></tr><tr><td><div>False</div></td></tr><tr><td><div>http://www.web2py.com/examples/default/usergroups</div></td></tr></table></div></td></tr><tr><td><div><table><tr><td><div>Twitter</div></td></tr><tr><td><div>False</div></td></tr><tr><td><div>http://twitter.com/web2py</div></td></tr></table></div></td></tr><tr><td><div><table><tr><td><div>Chat en vivo</div></td></tr><tr><td><div>False</div></td></tr><tr><td><div>http://webchat.freenode.net/?channels=web2py</div></td></tr></table></div></td></tr></table></div></td></tr></table></div></td></tr></table></div></td></tr><tr><td style="font-weight:bold;vertical-align:top;">meta</td><td style="vertical-align:top;">:</td><td><div><table><tr><td style="font-weight:bold;vertical-align:top;">author</td><td style="vertical-align:top;">:</td><td><div>Your Name &lt;you@example.com&gt;</div></td></tr><tr><td style="font-weight:bold;vertical-align:top;">description</td><td style="vertical-align:top;">:</td><td><div>a cool new app</div></td></tr><tr><td style="font-weight:bold;vertical-align:top;">generator</td><td style="vertical-align:top;">:</td><td><div>Web2py Web Framework</div></td></tr><tr><td style="font-weight:bold;vertical-align:top;">keywords</td><td style="vertical-align:top;">:</td><td><div><table><tr><td><div>web2py</div></td></tr><tr><td><div>python</div></td></tr><tr><td><div>framework</div></td></tr></table></div></td></tr></table></div></td></tr><tr><td style="font-weight:bold;vertical-align:top;">models_to_run</td><td style="vertical-align:top;">:</td><td><div><table><tr><td><div>^\\w+\\.py$</div></td></tr><tr><td><div>^default/\\w+\\.py$</div></td></tr><tr><td><div>^default/index/\\w+\\.py$</div></td></tr></table></div></td></tr><tr><td style="font-weight:bold;vertical-align:top;">postprocessing</td><td style="vertical-align:top;">:</td><td><div><table></table></div></td></tr><tr><td style="font-weight:bold;vertical-align:top;">session_client</td><td style="vertical-align:top;">:</td><td><div>127.0.0.1</div></td></tr><tr><td style="font-weight:bold;vertical-align:top;">session_cookie_compression_level</td><td style="vertical-align:top;">:</td><td><div>None</div></td></tr><tr><td style="font-weight:bold;vertical-align:top;">session_cookie_expires</td><td style="vertical-align:top;">:</td><td><div>None</div></td></tr><tr><td style="font-weight:bold;vertical-align:top;">session_data_name</td><td style="vertical-align:top;">:</td><td><div>session_data_apolo</div></td></tr><tr><td style="font-weight:bold;vertical-align:top;">session_file</td><td style="vertical-align:top;">:</td><td><div>None</div></td></tr><tr><td style="font-weight:bold;vertical-align:top;">session_filename</td><td style="vertical-align:top;">:</td><td><div>/home/marcosajc/Documentos/Sistemas/web2py/applications/Apolo/sessions/127.0.0.1-bb7e5d30-cade-4ab0-bcb1-26a8d2bb1294</div></td></tr><tr><td style="font-weight:bold;vertical-align:top;">session_hash</td><td style="vertical-align:top;">:</td><td><div>c0762cbf4baf7f9af97c051e7fcb8083</div></td></tr><tr><td style="font-weight:bold;vertical-align:top;">session_id</td><td style="vertical-align:top;">:</td><td><div>127.0.0.1-bb7e5d30-cade-4ab0-bcb1-26a8d2bb1294</div></td></tr><tr><td style="font-weight:bold;vertical-align:top;">session_id_name</td><td style="vertical-align:top;">:</td><td><div>session_id_apolo</div></td></tr><tr><td style="font-weight:bold;vertical-align:top;">session_masterapp</td><td style="vertical-align:top;">:</td><td><div>Apolo</div></td></tr><tr><td style="font-weight:bold;vertical-align:top;">session_new</td><td style="vertical-align:top;">:</td><td><div>True</div></td></tr><tr><td style="font-weight:bold;vertical-align:top;">session_storage_type</td><td style="vertical-align:top;">:</td><td><div>file</div></td></tr><tr><td style="font-weight:bold;vertical-align:top;">status</td><td style="vertical-align:top;">:</td><td><div>200</div></td></tr><tr><td style="font-weight:bold;vertical-align:top;">subtitle</td><td style="vertical-align:top;">:</td><td><div></div></td></tr><tr><td style="font-weight:bold;vertical-align:top;">title</td><td style="vertical-align:top;">:</td><td><div>Apolo</div></td></tr><tr><td style="font-weight:bold;vertical-align:top;">view</td><td style="vertical-align:top;">:</td><td><div>default/index.html</div></td></tr></table></div>'
tRp271
sS'locals'
p272
(dp273
S'a'
S"('ALTER TABLE bombero ADD hijos INTEGER;',)"
p274
sS'self'
p275
S'<pydal.adapters.postgres.PostgreSQLAdapter object>'
p276
sS'b'
g21
sS'command'
p277
S"'ALTER TABLE bombero ADD hijos INTEGER;'"
p278
sS't0'
p279
S'1487300572.868683'
p280
sssS'traceback'
p281
S'Traceback (most recent call last):\n  File "/home/marcosajc/Documentos/Sistemas/web2py/gluon/restricted.py", line 227, in restricted\n    exec ccode in environment\n  File "/home/marcosajc/Documentos/Sistemas/web2py/applications/Apolo/models/models.py", line 31, in <module>\n    migrate=True)\n  File "/home/marcosajc/Documentos/Sistemas/web2py/gluon/packages/dal/pydal/base.py", line 834, in define_table\n    table = self.lazy_define_table(tablename,*fields,**args)\n  File "/home/marcosajc/Documentos/Sistemas/web2py/gluon/packages/dal/pydal/base.py", line 873, in lazy_define_table\n    polymodel=polymodel)\n  File "/home/marcosajc/Documentos/Sistemas/web2py/gluon/packages/dal/pydal/adapters/base.py", line 510, in create_table\n    fake_migrate=fake_migrate\n  File "/home/marcosajc/Documentos/Sistemas/web2py/gluon/packages/dal/pydal/adapters/base.py", line 623, in migrate_table\n    self.execute(sub_query)\n  File "/home/marcosajc/Documentos/Sistemas/web2py/gluon/packages/dal/pydal/adapters/postgres.py", line 362, in execute\n    return BaseAdapter.execute(self, *a, **b)\n  File "/home/marcosajc/Documentos/Sistemas/web2py/gluon/packages/dal/pydal/adapters/base.py", line 1388, in execute\n    return self.log_execute(*a, **b)\n  File "/home/marcosajc/Documentos/Sistemas/web2py/gluon/packages/dal/pydal/adapters/base.py", line 1382, in log_execute\n    ret = self.get_cursor().execute(command, *a[1:], **b)\nProgrammingError: relation "bombero" does not exist\n\n'
p282
s.